; Function Attrs: mustprogress nofree norecurse nosync nounwind memory(argmem: readwrite) uwtable
define hidden void @_ZN2cv12cpu_baseline12accSqr_simd_EPKfPfPKhii(ptr noundef readonly captures(none) %0, ptr noundef captures(none) %1, ptr noundef readonly %2, i32 noundef %3, i32 noundef %4) local_unnamed_addr #0 {
  %.not.i = icmp eq ptr %2, null
  br i1 %.not.i, label %6, label %14

6:                                                ; preds = %5
  %7 = mul nsw i32 %4, %3
  %8 = icmp sgt i32 %7, 0
  br i1 %8, label %.lr.ph.preheader.i, label %_ZN2cv12cpu_baseline15accSqr_general_IffEEvPKT_PT0_PKhiii.exit

.lr.ph.preheader.i:                               ; preds = %6
  %wide.trip.count60.i = zext nneg i32 %7 to i64
  br label %.lr.ph.i

.lr.ph.i:                                         ; preds = %.lr.ph.i, %.lr.ph.preheader.i
  %indvars.iv57.i = phi i64 [ 0, %.lr.ph.preheader.i ], [ %indvars.iv.next58.i, %.lr.ph.i ]
  %9 = getelementptr inbounds nuw float, ptr %0, i64 %indvars.iv57.i
  %10 = load float, ptr %9, align 4, !tbaa !6
  %11 = getelementptr inbounds nuw float, ptr %1, i64 %indvars.iv57.i
  %12 = load float, ptr %11, align 4, !tbaa !6
  %13 = tail call float @llvm.fmuladd.f32(float %10, float %10, float %12)
  store float %13, ptr %11, align 4, !tbaa !6
  %indvars.iv.next58.i = add nuw nsw i64 %indvars.iv57.i, 1
  %exitcond61.not.i = icmp eq i64 %indvars.iv.next58.i, %wide.trip.count60.i
  br i1 %exitcond61.not.i, label %_ZN2cv12cpu_baseline15accSqr_general_IffEEvPKT_PT0_PKhiii.exit, label %.lr.ph.i, !llvm.loop !40

14:                                               ; preds = %5
  %15 = icmp sgt i32 %3, 0
  br i1 %15, label %.lr.ph47.i, label %_ZN2cv12cpu_baseline15accSqr_general_IffEEvPKT_PT0_PKhiii.exit

.lr.ph47.i:                                       ; preds = %14
  %16 = icmp sgt i32 %4, 0
  %17 = sext i32 %4 to i64
  br i1 %16, label %.lr.ph47.split.us.preheader.i, label %_ZN2cv12cpu_baseline15accSqr_general_IffEEvPKT_PT0_PKhiii.exit

.lr.ph47.split.us.preheader.i:                    ; preds = %.lr.ph47.i
  %wide.trip.count55.i = zext nneg i32 %3 to i64
  %wide.trip.count.i = zext nneg i32 %4 to i64
  br label %.lr.ph47.split.us.i

.lr.ph47.split.us.i:                              ; preds = %..loopexit41_crit_edge.us.i, %.lr.ph47.split.us.preheader.i
  %indvars.iv52.i = phi i64 [ 0, %.lr.ph47.split.us.preheader.i ], [ %indvars.iv.next53.i, %..loopexit41_crit_edge.us.i ]
  %.03745.us.i = phi ptr [ %0, %.lr.ph47.split.us.preheader.i ], [ %25, %..loopexit41_crit_edge.us.i ]
  %.03844.us.i = phi ptr [ %1, %.lr.ph47.split.us.preheader.i ], [ %26, %..loopexit41_crit_edge.us.i ]
  %18 = getelementptr inbounds nuw i8, ptr %2, i64 %indvars.iv52.i
  %19 = load i8, ptr %18, align 1, !tbaa !3
  %.not40.us.i = icmp eq i8 %19, 0
  br i1 %.not40.us.i, label %..loopexit41_crit_edge.us.i, label %.preheader.us.i

.preheader.us.i:                                  ; preds = %.lr.ph47.split.us.i, %.preheader.us.i
  %indvars.iv.i = phi i64 [ %indvars.iv.next.i, %.preheader.us.i ], [ 0, %.lr.ph47.split.us.i ]
  %20 = getelementptr inbounds nuw float, ptr %.03745.us.i, i64 %indvars.iv.i
  %21 = load float, ptr %20, align 4, !tbaa !6
  %22 = getelementptr inbounds nuw float, ptr %.03844.us.i, i64 %indvars.iv.i
  %23 = load float, ptr %22, align 4, !tbaa !6
  %24 = tail call float @llvm.fmuladd.f32(float %21, float %21, float %23)
  store float %24, ptr %22, align 4, !tbaa !6
  %indvars.iv.next.i = add nuw nsw i64 %indvars.iv.i, 1
  %exitcond.not.i = icmp eq i64 %indvars.iv.next.i, %wide.trip.count.i
  br i1 %exitcond.not.i, label %..loopexit41_crit_edge.us.i, label %.preheader.us.i, !llvm.loop !41

..loopexit41_crit_edge.us.i:                      ; preds = %.preheader.us.i, %.lr.ph47.split.us.i
  %indvars.iv.next53.i = add nuw nsw i64 %indvars.iv52.i, 1
  %25 = getelementptr inbounds nuw float, ptr %.03745.us.i, i64 %17
  %26 = getelementptr inbounds nuw float, ptr %.03844.us.i, i64 %17
  %exitcond56.not.i = icmp eq i64 %indvars.iv.next53.i, %wide.trip.count55.i
  br i1 %exitcond56.not.i, label %_ZN2cv12cpu_baseline15accSqr_general_IffEEvPKT_PT0_PKhiii.exit, label %.lr.ph47.split.us.i, !llvm.loop !42

_ZN2cv12cpu_baseline15accSqr_general_IffEEvPKT_PT0_PKhiii.exit: ; preds = %..loopexit41_crit_edge.us.i, %.lr.ph.i, %6, %14, %.lr.ph47.i
  ret void
}